target datalayout = "e-m:e-p270:32:32-p271:32:32-p272:64:64-i64:64-i128:128-f80:128-n8:16:32:64-S128"
target triple = "x86_64-pc-linux-gnu"

%struct.ident_t = type { i32, i32, i32, i32, ptr }
%"struct.std::_Vector_base" = type { %"struct.std::_Vector_base<float, std::allocator<float>>::_Vector_impl" }
%"struct.std::_Vector_base<float, std::allocator<float>>::_Vector_impl" = type { %"struct.std::_Vector_base<float, std::allocator<float>>::_Vector_impl_data" }
%"struct.std::_Vector_base<float, std::allocator<float>>::_Vector_impl_data" = type { ptr, ptr, ptr }
%"struct.std::_Vector_base.4" = type { %"struct.std::_Vector_base<unsigned char, std::allocator<unsigned char>>::_Vector_impl" }
%"struct.std::_Vector_base<unsigned char, std::allocator<unsigned char>>::_Vector_impl" = type { %"struct.std::_Vector_base<unsigned char, std::allocator<unsigned char>>::_Vector_impl_data" }
%"struct.std::_Vector_base<unsigned char, std::allocator<unsigned char>>::_Vector_impl_data" = type { ptr, ptr, ptr }
%"struct.faiss::PQDecoder8" = type { ptr }

@1 = private unnamed_addr constant %struct.ident_t { i32 0, i32 2, i32 0, i32 22, ptr @0 }, align 8

; Function Attrs: inlinehint mustprogress nounwind uwtable
define linkonce_odr dso_local noundef i64 @_ZN5faiss10PQDecoder86decodeEv(ptr noundef nonnull align 8 dereferenceable(8) %0) #7 comdat align 2 {
  %2 = alloca ptr, align 8
  store ptr %0, ptr %2, align 8, !tbaa !173
  %3 = load ptr, ptr %2, align 8
  %4 = getelementptr inbounds nuw %"struct.faiss::PQDecoder8", ptr %3, i32 0, i32 0
  %5 = load ptr, ptr %4, align 8, !tbaa !175
  %6 = getelementptr inbounds nuw i8, ptr %5, i32 1
  store ptr %6, ptr %4, align 8, !tbaa !175
  %7 = load i8, ptr %5, align 1, !tbaa !53
  %8 = zext i8 %7 to i64
  ret i64 %8
}

; Function Attrs: inlinehint mustprogress nounwind uwtable
define linkonce_odr dso_local void @_ZN5faiss10PQDecoder8C2EPKhi(ptr noundef nonnull align 8 dereferenceable(8) %0, ptr noundef %1, i32 noundef %2) unnamed_addr #7 comdat align 2 {
  %4 = alloca ptr, align 8
  %5 = alloca ptr, align 8
  %6 = alloca i32, align 4
  store ptr %0, ptr %4, align 8, !tbaa !173
  store ptr %1, ptr %5, align 8, !tbaa !83
  store i32 %2, ptr %6, align 4, !tbaa !31
  %7 = load ptr, ptr %4, align 8
  %8 = getelementptr inbounds nuw %"struct.faiss::PQDecoder8", ptr %7, i32 0, i32 0
  %9 = load ptr, ptr %5, align 8, !tbaa !83
  store ptr %9, ptr %8, align 8, !tbaa !175
  ret void
}

; Function Attrs: mustprogress nounwind uwtable
define linkonce_odr dso_local noundef ptr @_ZNKSt6vectorIhSaIhEE11_M_data_ptrIhEEPT_S4_(ptr noundef nonnull align 8 dereferenceable(24) %0, ptr noundef %1) #0 comdat align 2 {
  %3 = alloca ptr, align 8
  %4 = alloca ptr, align 8
  store ptr %0, ptr %3, align 8, !tbaa !64
  store ptr %1, ptr %4, align 8, !tbaa !83
  %5 = load ptr, ptr %4, align 8, !tbaa !83
  ret ptr %5
}

; Function Attrs: mustprogress nounwind uwtable
define linkonce_odr dso_local noundef ptr @_ZNKSt6vectorIfSaIfEE11_M_data_ptrIfEEPT_S4_(ptr noundef nonnull align 8 dereferenceable(24) %0, ptr noundef %1) #0 comdat align 2 {
  %3 = alloca ptr, align 8
  %4 = alloca ptr, align 8
  store ptr %0, ptr %3, align 8, !tbaa !18
  store ptr %1, ptr %4, align 8, !tbaa !58
  %5 = load ptr, ptr %4, align 8, !tbaa !58
  ret ptr %5
}

; Function Attrs: noinline noreturn nounwind uwtable
define linkonce_odr hidden void @__clang_call_terminate(ptr noundef %0) #10 comdat {
  %2 = call ptr @__cxa_begin_catch(ptr %0) #5
  call void @_ZSt9terminatev() #23
  unreachable
}

; Function Attrs: mustprogress nounwind uwtable
define linkonce_odr dso_local noundef nonnull align 4 dereferenceable(4) ptr @_ZNSt6vectorIfSaIfEEixEm(ptr noundef nonnull align 8 dereferenceable(24) %0, i64 noundef %1) #0 comdat align 2 {
  %3 = alloca ptr, align 8
  %4 = alloca i64, align 8
  store ptr %0, ptr %3, align 8, !tbaa !18
  store i64 %1, ptr %4, align 8, !tbaa !20
  %5 = load ptr, ptr %3, align 8
  %6 = getelementptr inbounds nuw %"struct.std::_Vector_base", ptr %5, i32 0, i32 0
  %7 = getelementptr inbounds nuw %"struct.std::_Vector_base<float, std::allocator<float>>::_Vector_impl_data", ptr %6, i32 0, i32 0
  %8 = load ptr, ptr %7, align 8, !tbaa !28
  %9 = load i64, ptr %4, align 8, !tbaa !20
  %10 = getelementptr inbounds nuw float, ptr %8, i64 %9
  ret ptr %10
}

; Function Attrs: inlinehint mustprogress uwtable
define linkonce_odr dso_local noundef float @_ZN5faiss28distance_single_code_genericINS_10PQDecoder8EEEfmmPKfPKh(i64 noundef %0, i64 noundef %1, ptr noundef %2, ptr noundef %3) #12 comdat {
  %5 = alloca i64, align 8
  %6 = alloca i64, align 8
  %7 = alloca ptr, align 8
  %8 = alloca ptr, align 8
  %9 = alloca %"struct.faiss::PQDecoder8", align 8
  %10 = alloca i64, align 8
  %11 = alloca ptr, align 8
  %12 = alloca float, align 4
  %13 = alloca i64, align 8
  store i64 %0, ptr %5, align 8, !tbaa !20
  store i64 %1, ptr %6, align 8, !tbaa !20
  store ptr %2, ptr %7, align 8, !tbaa !58
  store ptr %3, ptr %8, align 8, !tbaa !83
  call void @llvm.lifetime.start.p0(i64 8, ptr %9) #5
  %14 = load ptr, ptr %8, align 8, !tbaa !83
  %15 = load i64, ptr %6, align 8, !tbaa !20
  %16 = trunc i64 %15 to i32
  call void @_ZN5faiss10PQDecoder8C2EPKhi(ptr noundef nonnull align 8 dereferenceable(8) %9, ptr noundef %14, i32 noundef %16)
  call void @llvm.lifetime.start.p0(i64 8, ptr %10) #5
  %17 = load i64, ptr %6, align 8, !tbaa !20
  %18 = trunc i64 %17 to i32
  %19 = shl i32 1, %18
  %20 = sext i32 %19 to i64
  store i64 %20, ptr %10, align 8, !tbaa !20
  call void @llvm.lifetime.start.p0(i64 8, ptr %11) #5
  %21 = load ptr, ptr %7, align 8, !tbaa !58
  store ptr %21, ptr %11, align 8, !tbaa !58
  call void @llvm.lifetime.start.p0(i64 4, ptr %12) #5
  store float 0.000000e+00, ptr %12, align 4, !tbaa !22
  call void @llvm.lifetime.start.p0(i64 8, ptr %13) #5
  store i64 0, ptr %13, align 8, !tbaa !20
  br label %22

22:                                               ; preds = %37, %4
  %23 = load i64, ptr %13, align 8, !tbaa !20
  %24 = load i64, ptr %5, align 8, !tbaa !20
  %25 = icmp ult i64 %23, %24
  br i1 %25, label %27, label %26

26:                                               ; preds = %22
  call void @llvm.lifetime.end.p0(i64 8, ptr %13) #5
  br label %40

27:                                               ; preds = %22
  %28 = load ptr, ptr %11, align 8, !tbaa !58
  %29 = call noundef i64 @_ZN5faiss10PQDecoder86decodeEv(ptr noundef nonnull align 8 dereferenceable(8) %9)
  %30 = getelementptr inbounds nuw float, ptr %28, i64 %29
  %31 = load float, ptr %30, align 4, !tbaa !22
  %32 = load float, ptr %12, align 4, !tbaa !22
  %33 = fadd float %32, %31
  store float %33, ptr %12, align 4, !tbaa !22
  %34 = load i64, ptr %10, align 8, !tbaa !20
  %35 = load ptr, ptr %11, align 8, !tbaa !58
  %36 = getelementptr inbounds nuw float, ptr %35, i64 %34
  store ptr %36, ptr %11, align 8, !tbaa !58
  br label %37

37:                                               ; preds = %27
  %38 = load i64, ptr %13, align 8, !tbaa !20
  %39 = add i64 %38, 1
  store i64 %39, ptr %13, align 8, !tbaa !20
  br label %22, !llvm.loop !84

40:                                               ; preds = %26
  %41 = load float, ptr %12, align 4, !tbaa !22
  call void @llvm.lifetime.end.p0(i64 4, ptr %12) #5
  call void @llvm.lifetime.end.p0(i64 8, ptr %11) #5
  call void @llvm.lifetime.end.p0(i64 8, ptr %10) #5
  call void @llvm.lifetime.end.p0(i64 8, ptr %9) #5
  ret float %41
}

; Function Attrs: mustprogress nounwind uwtable
define linkonce_odr dso_local noundef ptr @_ZNSt6vectorIhSaIhEE4dataEv(ptr noundef nonnull align 8 dereferenceable(24) %0) #0 comdat align 2 {
  %2 = alloca ptr, align 8
  store ptr %0, ptr %2, align 8, !tbaa !64
  %3 = load ptr, ptr %2, align 8
  %4 = getelementptr inbounds nuw %"struct.std::_Vector_base.4", ptr %3, i32 0, i32 0
  %5 = getelementptr inbounds nuw %"struct.std::_Vector_base<unsigned char, std::allocator<unsigned char>>::_Vector_impl_data", ptr %4, i32 0, i32 0
  %6 = load ptr, ptr %5, align 8, !tbaa !75
  %7 = call noundef ptr @_ZNKSt6vectorIhSaIhEE11_M_data_ptrIhEEPT_S4_(ptr noundef nonnull align 8 dereferenceable(24) %3, ptr noundef %6) #5
  ret ptr %7
}

; Function Attrs: mustprogress nounwind uwtable
define linkonce_odr dso_local noundef ptr @_ZNSt6vectorIfSaIfEE4dataEv(ptr noundef nonnull align 8 dereferenceable(24) %0) #0 comdat align 2 {
  %2 = alloca ptr, align 8
  store ptr %0, ptr %2, align 8, !tbaa !18
  %3 = load ptr, ptr %2, align 8
  %4 = getelementptr inbounds nuw %"struct.std::_Vector_base", ptr %3, i32 0, i32 0
  %5 = getelementptr inbounds nuw %"struct.std::_Vector_base<float, std::allocator<float>>::_Vector_impl_data", ptr %4, i32 0, i32 0
  %6 = load ptr, ptr %5, align 8, !tbaa !28
  %7 = call noundef ptr @_ZNKSt6vectorIfSaIfEE11_M_data_ptrIfEEPT_S4_(ptr noundef nonnull align 8 dereferenceable(24) %3, ptr noundef %6) #5
  ret ptr %7
}

; Function Attrs: alwaysinline norecurse nounwind uwtable
define internal void @_Z4testmmmm.omp_outlined.4(ptr noalias noundef %0, ptr noalias noundef %1, ptr noundef nonnull align 8 dereferenceable(8) %2, ptr noundef nonnull align 8 dereferenceable(24) %3, ptr noundef nonnull align 8 dereferenceable(8) %4, ptr noundef nonnull align 8 dereferenceable(24) %5, ptr noundef nonnull align 8 dereferenceable(24) %6) #9 personality ptr @__gxx_personality_v0 {
  %8 = alloca ptr, align 8
  %9 = alloca ptr, align 8
  %10 = alloca ptr, align 8
  %11 = alloca ptr, align 8
  %12 = alloca ptr, align 8
  %13 = alloca ptr, align 8
  %14 = alloca ptr, align 8
  %15 = alloca i64, align 8
  %16 = alloca i64, align 8
  %17 = alloca i64, align 8
  %18 = alloca i64, align 8
  %19 = alloca i64, align 8
  %20 = alloca i64, align 8
  %21 = alloca i64, align 8
  %22 = alloca i32, align 4
  %23 = alloca i64, align 8
  store ptr %0, ptr %8, align 8, !tbaa !68
  store ptr %1, ptr %9, align 8, !tbaa !68
  store ptr %2, ptr %10, align 8, !tbaa !78
  store ptr %3, ptr %11, align 8, !tbaa !18
  store ptr %4, ptr %12, align 8, !tbaa !78
  store ptr %5, ptr %13, align 8, !tbaa !18
  store ptr %6, ptr %14, align 8, !tbaa !64
  %24 = load ptr, ptr %10, align 8, !tbaa !78
  %25 = load ptr, ptr %11, align 8, !tbaa !18
  %26 = load ptr, ptr %12, align 8, !tbaa !78
  %27 = load ptr, ptr %13, align 8, !tbaa !18
  %28 = load ptr, ptr %14, align 8, !tbaa !64
  call void @llvm.lifetime.start.p0(i64 8, ptr %15) #5
  call void @llvm.lifetime.start.p0(i64 8, ptr %16) #5
  %29 = load i64, ptr %24, align 8, !tbaa !20
  store i64 %29, ptr %16, align 8, !tbaa !20
  call void @llvm.lifetime.start.p0(i64 8, ptr %17) #5
  %30 = load i64, ptr %16, align 8, !tbaa !20
  %31 = sub i64 %30, 0
  %32 = udiv i64 %31, 1
  %33 = sub i64 %32, 1
  store i64 %33, ptr %17, align 8, !tbaa !20
  call void @llvm.lifetime.start.p0(i64 8, ptr %18) #5
  store i64 0, ptr %18, align 8, !tbaa !20
  call void @llvm.lifetime.end.p0(i64 8, ptr %18) #5
  %34 = load i64, ptr %16, align 8, !tbaa !20
  %35 = icmp ult i64 0, %34
  br i1 %35, label %36, label %79

36:                                               ; preds = %7
  call void @llvm.lifetime.start.p0(i64 8, ptr %19) #5
  store i64 0, ptr %19, align 8, !tbaa !20
  call void @llvm.lifetime.start.p0(i64 8, ptr %20) #5
  %37 = load i64, ptr %17, align 8, !tbaa !20
  store i64 %37, ptr %20, align 8, !tbaa !20
  call void @llvm.lifetime.start.p0(i64 8, ptr %21) #5
  store i64 1, ptr %21, align 8, !tbaa !20
  call void @llvm.lifetime.start.p0(i64 4, ptr %22) #5
  store i32 0, ptr %22, align 4, !tbaa !31
  call void @llvm.lifetime.start.p0(i64 8, ptr %23) #5
  %38 = load i64, ptr %17, align 8, !tbaa !20
  %39 = load ptr, ptr %8, align 8
  %40 = load i32, ptr %39, align 4, !tbaa !31
  call void @__kmpc_dispatch_init_8u(ptr @1, i32 %40, i32 1073741860, i64 0, i64 %38, i64 1, i64 1)
  br label %41

41:                                               ; preds = %75, %36
  %42 = load ptr, ptr %8, align 8
  %43 = load i32, ptr %42, align 4, !tbaa !31
  %44 = call i32 @__kmpc_dispatch_next_8u(ptr @1, i32 %43, ptr %22, ptr %19, ptr %20, ptr %21)
  %45 = icmp ne i32 %44, 0
  br i1 %45, label %47, label %46

46:                                               ; preds = %41
  br label %76

47:                                               ; preds = %41
  %48 = load i64, ptr %19, align 8, !tbaa !20
  store i64 %48, ptr %15, align 8, !tbaa !20
  br label %49

49:                                               ; preds = %71, %47
  %50 = load i64, ptr %15, align 8, !tbaa !20, !llvm.access.group !85
  %51 = load i64, ptr %20, align 8, !tbaa !20, !llvm.access.group !85
  %52 = add i64 %51, 1
  %53 = icmp ult i64 %50, %52
  br i1 %53, label %55, label %54

54:                                               ; preds = %49
  br label %74

55:                                               ; preds = %49
  %56 = load i64, ptr %15, align 8, !tbaa !20, !llvm.access.group !85
  %57 = mul i64 %56, 1
  %58 = add i64 0, %57
  store i64 %58, ptr %23, align 8, !tbaa !20, !llvm.access.group !85
  %59 = load i64, ptr %26, align 8, !tbaa !20, !llvm.access.group !85
  %60 = call noundef ptr @_ZNSt6vectorIfSaIfEE4dataEv(ptr noundef nonnull align 8 dereferenceable(24) %27) #5, !llvm.access.group !85
  %61 = call noundef ptr @_ZNSt6vectorIhSaIhEE4dataEv(ptr noundef nonnull align 8 dereferenceable(24) %28) #5, !llvm.access.group !85
  %62 = load i64, ptr %26, align 8, !tbaa !20, !llvm.access.group !85
  %63 = load i64, ptr %23, align 8, !tbaa !20, !llvm.access.group !85
  %64 = mul i64 %62, %63
  %65 = getelementptr inbounds nuw i8, ptr %61, i64 %64
  %66 = invoke noundef float @_ZN5faiss28distance_single_code_genericINS_10PQDecoder8EEEfmmPKfPKh(i64 noundef %59, i64 noundef 8, ptr noundef %60, ptr noundef %65)
          to label %67 unwind label %80, !llvm.access.group !85

67:                                               ; preds = %55
  %68 = load i64, ptr %23, align 8, !tbaa !20, !llvm.access.group !85
  %69 = call noundef nonnull align 4 dereferenceable(4) ptr @_ZNSt6vectorIfSaIfEEixEm(ptr noundef nonnull align 8 dereferenceable(24) %25, i64 noundef %68) #5, !llvm.access.group !85
  store float %66, ptr %69, align 4, !tbaa !22, !llvm.access.group !85
  br label %70

70:                                               ; preds = %67
  br label %71

71:                                               ; preds = %70
  %72 = load i64, ptr %15, align 8, !tbaa !20, !llvm.access.group !85
  %73 = add i64 %72, 1
  store i64 %73, ptr %15, align 8, !tbaa !20, !llvm.access.group !85
  br label %49, !llvm.loop !86

74:                                               ; preds = %54
  br label %75

75:                                               ; preds = %74
  br label %41

76:                                               ; preds = %46
  %77 = load ptr, ptr %8, align 8
  %78 = load i32, ptr %77, align 4, !tbaa !31
  call void @__kmpc_dispatch_deinit(ptr @1, i32 %78)
  call void @llvm.lifetime.end.p0(i64 8, ptr %23) #5
  call void @llvm.lifetime.end.p0(i64 4, ptr %22) #5
  call void @llvm.lifetime.end.p0(i64 8, ptr %21) #5
  call void @llvm.lifetime.end.p0(i64 8, ptr %20) #5
  call void @llvm.lifetime.end.p0(i64 8, ptr %19) #5
  br label %79

79:                                               ; preds = %76, %7
  call void @llvm.lifetime.end.p0(i64 8, ptr %17) #5
  call void @llvm.lifetime.end.p0(i64 8, ptr %16) #5
  call void @llvm.lifetime.end.p0(i64 8, ptr %15) #5
  ret void

80:                                               ; preds = %55
  %81 = landingpad { ptr, i32 }
          catch ptr null
  %82 = extractvalue { ptr, i32 } %81, 0
  call void @__clang_call_terminate(ptr %82) #23, !llvm.access.group !85
  unreachable
}